; ModuleID = 'source-C-CXX/10/235.c'
source_filename = "source-C-CXX/10/235.c"
target datalayout = "e-m:e-p270:32:32-p271:32:32-p272:64:64-i64:64-f80:128-n8:16:32:64-S128"
target triple = "x86_64-pc-linux-gnu"

@.str = private unnamed_addr constant [9 x i8] c"%d %d %d\00", align 1
@.str.1 = private unnamed_addr constant [4 x i8] c"%d\0A\00", align 1
@.str.2 = private unnamed_addr constant [3 x i8] c"%d\00", align 1

; Function Attrs: nofree nounwind sspstrong uwtable
define dso_local i32 @main() local_unnamed_addr #0 {
  %1 = alloca i32, align 4
  %2 = alloca i32, align 4
  %3 = alloca i32, align 4
  %4 = alloca i32, align 4
  %5 = bitcast i32* %1 to i8*
  call void @llvm.lifetime.start.p0i8(i64 4, i8* nonnull %5) #4
  %6 = bitcast i32* %2 to i8*
  call void @llvm.lifetime.start.p0i8(i64 4, i8* nonnull %6) #4
  %7 = bitcast i32* %3 to i8*
  call void @llvm.lifetime.start.p0i8(i64 4, i8* nonnull %7) #4
  %8 = bitcast i32* %4 to i8*
  call void @llvm.lifetime.start.p0i8(i64 4, i8* nonnull %8) #4
  %9 = call i32 (i8*, ...) @__isoc99_scanf(i8* getelementptr inbounds ([9 x i8], [9 x i8]* @.str, i64 0, i64 0), i32* nonnull %1, i32* nonnull %2, i32* nonnull %3)
  %10 = load i32, i32* %2, align 4, !tbaa !5
  %11 = load i32, i32* %1, align 4, !tbaa !5
  %12 = load i32, i32* %3, align 4, !tbaa !5
  %13 = call i32 @count(i32 %10, i32 %11, i32 %12)
  store i32 %13, i32* %4, align 4, !tbaa !5
  %14 = call i32 (i8*, ...) @printf(i8* nonnull dereferenceable(1) getelementptr inbounds ([4 x i8], [4 x i8]* @.str.1, i64 0, i64 0), i32 %13)
  %15 = call i32 (i8*, ...) @__isoc99_scanf(i8* getelementptr inbounds ([9 x i8], [9 x i8]* @.str, i64 0, i64 0), i32* nonnull %1, i32* nonnull %2, i32* nonnull %3)
  %16 = load i32, i32* %2, align 4, !tbaa !5
  %17 = load i32, i32* %1, align 4, !tbaa !5
  %18 = load i32, i32* %3, align 4, !tbaa !5
  %19 = call i32 @count(i32 %16, i32 %17, i32 %18)
  store i32 %19, i32* %4, align 4, !tbaa !5
  %20 = call i32 (i8*, ...) @printf(i8* nonnull dereferenceable(1) getelementptr inbounds ([4 x i8], [4 x i8]* @.str.1, i64 0, i64 0), i32 %19)
  %21 = call i32 (i8*, ...) @__isoc99_scanf(i8* getelementptr inbounds ([9 x i8], [9 x i8]* @.str, i64 0, i64 0), i32* nonnull %1, i32* nonnull %2, i32* nonnull %3)
  %22 = load i32, i32* %2, align 4, !tbaa !5
  %23 = load i32, i32* %1, align 4, !tbaa !5
  %24 = load i32, i32* %3, align 4, !tbaa !5
  %25 = call i32 @count(i32 %22, i32 %23, i32 %24)
  store i32 %25, i32* %4, align 4, !tbaa !5
  %26 = call i32 (i8*, ...) @printf(i8* nonnull dereferenceable(1) getelementptr inbounds ([4 x i8], [4 x i8]* @.str.1, i64 0, i64 0), i32 %25)
  %27 = call i32 (i8*, ...) @__isoc99_scanf(i8* getelementptr inbounds ([9 x i8], [9 x i8]* @.str, i64 0, i64 0), i32* nonnull %1, i32* nonnull %2, i32* nonnull %3)
  %28 = load i32, i32* %2, align 4, !tbaa !5
  %29 = load i32, i32* %1, align 4, !tbaa !5
  %30 = load i32, i32* %3, align 4, !tbaa !5
  %31 = call i32 @count(i32 %28, i32 %29, i32 %30)
  store i32 %31, i32* %4, align 4, !tbaa !5
  %32 = call i32 (i8*, ...) @printf(i8* nonnull dereferenceable(1) getelementptr inbounds ([4 x i8], [4 x i8]* @.str.1, i64 0, i64 0), i32 %31)
  %33 = call i32 (i8*, ...) @__isoc99_scanf(i8* getelementptr inbounds ([9 x i8], [9 x i8]* @.str, i64 0, i64 0), i32* nonnull %1, i32* nonnull %2, i32* nonnull %3)
  %34 = load i32, i32* %2, align 4, !tbaa !5
  %35 = load i32, i32* %1, align 4, !tbaa !5
  %36 = load i32, i32* %3, align 4, !tbaa !5
  %37 = call i32 @count(i32 %34, i32 %35, i32 %36)
  store i32 %37, i32* %4, align 4, !tbaa !5
  %38 = call i32 (i8*, ...) @printf(i8* nonnull dereferenceable(1) getelementptr inbounds ([4 x i8], [4 x i8]* @.str.1, i64 0, i64 0), i32 %37)
  %39 = call i32 (i8*, ...) @__isoc99_scanf(i8* getelementptr inbounds ([3 x i8], [3 x i8]* @.str.2, i64 0, i64 0), i32* nonnull %4)
  call void @llvm.lifetime.end.p0i8(i64 4, i8* nonnull %8) #4
  call void @llvm.lifetime.end.p0i8(i64 4, i8* nonnull %7) #4
  call void @llvm.lifetime.end.p0i8(i64 4, i8* nonnull %6) #4
  call void @llvm.lifetime.end.p0i8(i64 4, i8* nonnull %5) #4
  ret i32 0
}

; Function Attrs: argmemonly mustprogress nofree nosync nounwind willreturn
declare void @llvm.lifetime.start.p0i8(i64 immarg, i8* nocapture) #1

; Function Attrs: nofree nounwind
declare noundef i32 @__isoc99_scanf(i8* nocapture noundef readonly, ...) local_unnamed_addr #2

; Function Attrs: mustprogress nofree norecurse nosync nounwind readnone sspstrong uwtable willreturn
define dso_local i32 @count(i32 %0, i32 %1, i32 %2) local_unnamed_addr #3 {
  %4 = and i32 %1, 3
  %5 = icmp eq i32 %4, 0
  %6 = srem i32 %1, 100
  %7 = icmp ne i32 %6, 0
  %8 = and i1 %5, %7
  %9 = srem i32 %1, 400
  %10 = icmp eq i32 %9, 0
  %11 = select i1 %8, i1 true, i1 %10
  br i1 %11, label %12, label %35

12:                                               ; preds = %3
  switch i32 %0, label %58 [
    i32 12, label %33
    i32 2, label %13
    i32 3, label %15
    i32 4, label %17
    i32 5, label %19
    i32 6, label %21
    i32 7, label %23
    i32 8, label %25
    i32 9, label %27
    i32 10, label %29
    i32 11, label %31
  ]

13:                                               ; preds = %12
  %14 = add nsw i32 %2, 31
  br label %58

15:                                               ; preds = %12
  %16 = add nsw i32 %2, 60
  br label %58

17:                                               ; preds = %12
  %18 = add nsw i32 %2, 91
  br label %58

19:                                               ; preds = %12
  %20 = add nsw i32 %2, 121
  br label %58

21:                                               ; preds = %12
  %22 = add nsw i32 %2, 152
  br label %58

23:                                               ; preds = %12
  %24 = add nsw i32 %2, 182
  br label %58

25:                                               ; preds = %12
  %26 = add nsw i32 %2, 213
  br label %58

27:                                               ; preds = %12
  %28 = add nsw i32 %2, 244
  br label %58

29:                                               ; preds = %12
  %30 = add nsw i32 %2, 274
  br label %58

31:                                               ; preds = %12
  %32 = add nsw i32 %2, 305
  br label %58

33:                                               ; preds = %12
  %34 = add nsw i32 %2, 335
  br label %58

35:                                               ; preds = %3
  switch i32 %0, label %58 [
    i32 12, label %56
    i32 2, label %36
    i32 3, label %38
    i32 4, label %40
    i32 5, label %42
    i32 6, label %44
    i32 7, label %46
    i32 8, label %48
    i32 9, label %50
    i32 10, label %52
    i32 11, label %54
  ]

36:                                               ; preds = %35
  %37 = add nsw i32 %2, 31
  br label %58

38:                                               ; preds = %35
  %39 = add nsw i32 %2, 59
  br label %58

40:                                               ; preds = %35
  %41 = add nsw i32 %2, 90
  br label %58

42:                                               ; preds = %35
  %43 = add nsw i32 %2, 120
  br label %58

44:                                               ; preds = %35
  %45 = add nsw i32 %2, 151
  br label %58

46:                                               ; preds = %35
  %47 = add nsw i32 %2, 181
  br label %58

48:                                               ; preds = %35
  %49 = add nsw i32 %2, 212
  br label %58

50:                                               ; preds = %35
  %51 = add nsw i32 %2, 243
  br label %58

52:                                               ; preds = %35
  %53 = add nsw i32 %2, 273
  br label %58

54:                                               ; preds = %35
  %55 = add nsw i32 %2, 304
  br label %58

56:                                               ; preds = %35
  %57 = add nsw i32 %2, 334
  br label %58

58:                                               ; preds = %36, %38, %40, %42, %44, %46, %48, %50, %52, %54, %56, %35, %13, %15, %17, %19, %21, %23, %25, %27, %29, %31, %33, %12
  %59 = phi i32 [ %34, %33 ], [ %32, %31 ], [ %30, %29 ], [ %28, %27 ], [ %26, %25 ], [ %24, %23 ], [ %22, %21 ], [ %20, %19 ], [ %18, %17 ], [ %16, %15 ], [ %14, %13 ], [ %57, %56 ], [ %55, %54 ], [ %53, %52 ], [ %51, %50 ], [ %49, %48 ], [ %47, %46 ], [ %45, %44 ], [ %43, %42 ], [ %41, %40 ], [ %39, %38 ], [ %37, %36 ], [ %2, %12 ], [ %2, %35 ]
  ret i32 %59
}

; Function Attrs: nofree nounwind
declare noundef i32 @printf(i8* nocapture noundef readonly, ...) local_unnamed_addr #2

; Function Attrs: argmemonly mustprogress nofree nosync nounwind willreturn
declare void @llvm.lifetime.end.p0i8(i64 immarg, i8* nocapture) #1


!llvm.module.flags = !{!0, !1, !2, !3}
!llvm.ident = !{!4}

!0 = !{i32 1, !"wchar_size", i32 4}
!1 = !{i32 7, !"PIC Level", i32 2}
!2 = !{i32 7, !"PIE Level", i32 2}
!3 = !{i32 7, !"uwtable", i32 1}
!4 = !{!"clang version 13.0.0"}
!5 = !{!6, !6, i64 0}
!6 = !{!"int", !7, i64 0}
!7 = !{!"omnipotent char", !8, i64 0}
!8 = !{!"Simple C/C++ TBAA"}
